; Function Attrs: mustprogress uwtable
define void @_ZN3g2o16OptimizableGraph6Vertex11updateCacheEv(ptr noundef nonnull readonly align 8 captures(none) dereferenceable(128) %0) unnamed_addr #4 align 2 {
  %2 = getelementptr inbounds nuw i8, ptr %0, i64 120
  %3 = load ptr, ptr %2, align 8, !tbaa !33
  %.not = icmp eq ptr %3, null
  br i1 %.not, label %6, label %4

4:                                                ; preds = %1
  tail call void @_ZN3g2o14CacheContainer15setUpdateNeededEb(ptr noundef nonnull align 8 dereferenceable(65) %3, i1 noundef zeroext true)
  %5 = load ptr, ptr %2, align 8, !tbaa !33
  tail call void @_ZN3g2o14CacheContainer6updateEv(ptr noundef nonnull align 8 dereferenceable(65) %5)
  br label %6

6:                                                ; preds = %4, %1
  ret void
}